target datalayout = "e-m:e-p270:32:32-p271:32:32-p272:64:64-i64:64-i128:128-f80:128-n8:16:32:64-S128"
target triple = "x86_64-pc-linux-gnu"

%struct.sockaddr_storage = type { i16, [118 x i8], i64 }
%struct.slurm_msg = type { %struct.sockaddr_storage, ptr, i32, i32, i32, i8, i32, i8, i32, ptr, ptr, i32, ptr, ptr, i16, i8, i16, i16, %struct.forward, ptr, %struct.sockaddr_storage, ptr }
%struct.forward = type { %struct.slurm_node_alias_addrs_t, i16, i16, ptr, i32, i16, i16 }
%struct.slurm_node_alias_addrs_t = type { i64, ptr, ptr, i32, ptr }
%struct.ctld_list_msg_t = type { ptr }
%struct.return_code_msg = type { i32 }

@.str.3 = private unnamed_addr constant [49 x i8] c"%s: RESPONSE_CTLD_MULT_MSG has no list component\00", align 1
@__func__._parse_resp_ctld_mult = private unnamed_addr constant [22 x i8] c"_parse_resp_ctld_mult\00", align 1
@.str.4 = private unnamed_addr constant [49 x i8] c"%s: Sub-message unpack error for Message Type:%s\00", align 1
@.str.5 = private unnamed_addr constant [31 x i8] c"%s: Unexpected Message Type:%s\00", align 1

; Function Attrs: nounwind uwtable
define dso_local ptr @_parse_resp_ctld_mult(ptr noundef %0) #0 {
  %2 = alloca ptr, align 8
  %3 = alloca ptr, align 8
  %4 = alloca ptr, align 8
  %5 = alloca ptr, align 8
  %6 = alloca ptr, align 8
  %7 = alloca %struct.slurm_msg, align 8
  %8 = alloca ptr, align 8
  %9 = alloca ptr, align 8
  %10 = alloca i32, align 4
  %11 = alloca i32, align 4
  %12 = alloca i32, align 4
  store ptr %0, ptr %3, align 8
  call void @llvm.lifetime.start.p0(i64 8, ptr %4) #9
  %13 = load ptr, ptr %3, align 8
  %14 = getelementptr inbounds nuw %struct.slurm_msg, ptr %13, i32 0, i32 13
  %15 = load ptr, ptr %14, align 8
  store ptr %15, ptr %4, align 8
  call void @llvm.lifetime.start.p0(i64 8, ptr %5) #9
  store ptr null, ptr %5, align 8
  call void @llvm.lifetime.start.p0(i64 8, ptr %6) #9
  call void @llvm.lifetime.start.p0(i64 424, ptr %7) #9
  call void @llvm.lifetime.start.p0(i64 8, ptr %8) #9
  call void @llvm.lifetime.start.p0(i64 8, ptr %9) #9
  store ptr null, ptr %9, align 8
  call void @llvm.lifetime.start.p0(i64 4, ptr %10) #9
  call void @llvm.lifetime.start.p0(i64 4, ptr %11) #9
  store i32 -1, ptr %11, align 4
  %16 = load ptr, ptr %4, align 8
  %17 = getelementptr inbounds nuw %struct.ctld_list_msg_t, ptr %16, i32 0, i32 0
  %18 = load ptr, ptr %17, align 8
  %19 = icmp ne ptr %18, null
  br i1 %19, label %22, label %20

20:                                               ; preds = %1
  %21 = call i32 (ptr, ...) @error(ptr noundef @.str.3, ptr noundef @__func__._parse_resp_ctld_mult)
  store ptr null, ptr %2, align 8
  store i32 1, ptr %12, align 4
  br label %85

22:                                               ; preds = %1
  %23 = load ptr, ptr %4, align 8
  %24 = getelementptr inbounds nuw %struct.ctld_list_msg_t, ptr %23, i32 0, i32 0
  %25 = load ptr, ptr %24, align 8
  %26 = call i32 @list_count(ptr noundef %25)
  store i32 %26, ptr %10, align 4
  %27 = load i32, ptr %10, align 4
  %28 = sext i32 %27 to i64
  %29 = call ptr @bit_alloc(i64 noundef %28)
  store ptr %29, ptr %6, align 8
  %30 = load ptr, ptr %4, align 8
  %31 = getelementptr inbounds nuw %struct.ctld_list_msg_t, ptr %30, i32 0, i32 0
  %32 = load ptr, ptr %31, align 8
  %33 = call ptr @list_iterator_create(ptr noundef %32)
  store ptr %33, ptr %5, align 8
  br label %34

34:                                               ; preds = %76, %49, %22
  %35 = load ptr, ptr %5, align 8
  %36 = call ptr @list_next(ptr noundef %35)
  store ptr %36, ptr %9, align 8
  %37 = icmp ne ptr %36, null
  br i1 %37, label %38, label %83

38:                                               ; preds = %34
  %39 = load i32, ptr %11, align 4
  %40 = add nsw i32 %39, 1
  store i32 %40, ptr %11, align 4
  call void @slurm_msg_t_init(ptr noundef %7)
  %41 = getelementptr inbounds nuw %struct.slurm_msg, ptr %7, i32 0, i32 16
  %42 = load ptr, ptr %9, align 8
  %43 = call i32 @unpack16(ptr noundef %41, ptr noundef %42)
  %44 = icmp ne i32 %43, 0
  br i1 %44, label %49, label %45

45:                                               ; preds = %38
  %46 = load ptr, ptr %9, align 8
  %47 = call i32 @unpack_msg(ptr noundef %7, ptr noundef %46)
  %48 = icmp ne i32 %47, 0
  br i1 %48, label %49, label %54

49:                                               ; preds = %45, %38
  %50 = getelementptr inbounds nuw %struct.slurm_msg, ptr %7, i32 0, i32 16
  %51 = load i16, ptr %50, align 4
  %52 = call ptr @rpc_num2string(i16 noundef zeroext %51)
  %53 = call i32 (ptr, ...) @error(ptr noundef @.str.4, ptr noundef @__func__._parse_resp_ctld_mult, ptr noundef %52)
  br label %34, !llvm.loop !8

54:                                               ; preds = %45
  %55 = getelementptr inbounds nuw %struct.slurm_msg, ptr %7, i32 0, i32 16
  %56 = load i16, ptr %55, align 4
  %57 = zext i16 %56 to i32
  %58 = icmp ne i32 %57, 8001
  br i1 %58, label %59, label %64

59:                                               ; preds = %54
  %60 = getelementptr inbounds nuw %struct.slurm_msg, ptr %7, i32 0, i32 16
  %61 = load i16, ptr %60, align 4
  %62 = call ptr @rpc_num2string(i16 noundef zeroext %61)
  %63 = call i32 (ptr, ...) @error(ptr noundef @.str.5, ptr noundef @__func__._parse_resp_ctld_mult, ptr noundef %62)
  br label %76

64:                                               ; preds = %54
  %65 = getelementptr inbounds nuw %struct.slurm_msg, ptr %7, i32 0, i32 13
  %66 = load ptr, ptr %65, align 8
  store ptr %66, ptr %8, align 8
  %67 = load ptr, ptr %8, align 8
  %68 = getelementptr inbounds nuw %struct.return_code_msg, ptr %67, i32 0, i32 0
  %69 = load i32, ptr %68, align 4
  %70 = icmp eq i32 %69, 0
  br i1 %70, label %71, label %75

71:                                               ; preds = %64
  %72 = load ptr, ptr %6, align 8
  %73 = load i32, ptr %11, align 4
  %74 = sext i32 %73 to i64
  call void @bit_set(ptr noundef %72, i64 noundef %74)
  br label %75

75:                                               ; preds = %71, %64
  br label %76

76:                                               ; preds = %75, %59
  %77 = getelementptr inbounds nuw %struct.slurm_msg, ptr %7, i32 0, i32 16
  %78 = load i16, ptr %77, align 4
  %79 = zext i16 %78 to i32
  %80 = getelementptr inbounds nuw %struct.slurm_msg, ptr %7, i32 0, i32 13
  %81 = load ptr, ptr %80, align 8
  %82 = call i32 @slurm_free_msg_data(i32 noundef %79, ptr noundef %81)
  br label %34, !llvm.loop !8

83:                                               ; preds = %34
  %84 = load ptr, ptr %6, align 8
  store ptr %84, ptr %2, align 8
  store i32 1, ptr %12, align 4
  br label %85

85:                                               ; preds = %83, %20
  call void @llvm.lifetime.end.p0(i64 4, ptr %11) #9
  call void @llvm.lifetime.end.p0(i64 4, ptr %10) #9
  call void @llvm.lifetime.end.p0(i64 8, ptr %9) #9
  call void @llvm.lifetime.end.p0(i64 8, ptr %8) #9
  call void @llvm.lifetime.end.p0(i64 424, ptr %7) #9
  call void @llvm.lifetime.end.p0(i64 8, ptr %6) #9
  call void @llvm.lifetime.end.p0(i64 8, ptr %5) #9
  call void @llvm.lifetime.end.p0(i64 8, ptr %4) #9
  %86 = load ptr, ptr %2, align 8
  ret ptr %86
}