; Function Attrs: nounwind uwtable
define dso_local ptr @_parse_resp_ctld_mult(ptr noundef readonly captures(none) %0) local_unnamed_addr #0 {
  %2 = alloca %struct.slurm_msg, align 8
  %3 = getelementptr inbounds nuw i8, ptr %0, i64 200
  %4 = load ptr, ptr %3, align 8
  call void @llvm.lifetime.start.p0(i64 424, ptr nonnull %2) #16
  %5 = load ptr, ptr %4, align 8
  %.not = icmp eq ptr %5, null
  br i1 %.not, label %6, label %8

6:                                                ; preds = %1
  %7 = tail call i32 (ptr, ...) @error(ptr noundef nonnull @.str.3, ptr noundef nonnull @__func__._parse_resp_ctld_mult) #16
  br label %.loopexit

8:                                                ; preds = %1
  %9 = tail call i32 @list_count(ptr noundef nonnull %5) #16
  %10 = sext i32 %9 to i64
  %11 = tail call ptr @bit_alloc(i64 noundef %10) #16
  %12 = load ptr, ptr %4, align 8
  %13 = tail call ptr @list_iterator_create(ptr noundef %12) #16
  %14 = tail call ptr @list_next(ptr noundef %13) #16
  %.not1620 = icmp eq ptr %14, null
  br i1 %.not1620, label %.loopexit, label %.lr.ph

.lr.ph:                                           ; preds = %8
  %15 = getelementptr inbounds nuw i8, ptr %2, i64 212
  %16 = getelementptr inbounds nuw i8, ptr %2, i64 200
  br label %17

17:                                               ; preds = %.lr.ph, %.backedge
  %indvars.iv = phi i64 [ -1, %.lr.ph ], [ %indvars.iv.next, %.backedge ]
  %18 = phi ptr [ %14, %.lr.ph ], [ %26, %.backedge ]
  %indvars.iv.next = add nsw i64 %indvars.iv, 1
  call void @slurm_msg_t_init(ptr noundef nonnull %2) #16
  %19 = call i32 @unpack16(ptr noundef nonnull %15, ptr noundef nonnull %18) #16
  %.not17 = icmp eq i32 %19, 0
  br i1 %.not17, label %20, label %22

20:                                               ; preds = %17
  %21 = call i32 @unpack_msg(ptr noundef nonnull %2, ptr noundef nonnull %18) #16
  %.not18 = icmp eq i32 %21, 0
  br i1 %.not18, label %27, label %22

22:                                               ; preds = %20, %17
  %23 = load i16, ptr %15, align 4
  %24 = call ptr @rpc_num2string(i16 noundef zeroext %23) #16
  %25 = call i32 (ptr, ...) @error(ptr noundef nonnull @.str.4, ptr noundef nonnull @__func__._parse_resp_ctld_mult, ptr noundef %24) #16
  br label %.backedge

.backedge:                                        ; preds = %22, %37
  %26 = call ptr @list_next(ptr noundef %13) #16
  %.not16 = icmp eq ptr %26, null
  br i1 %.not16, label %.loopexit, label %17, !llvm.loop !8

27:                                               ; preds = %20
  %28 = load i16, ptr %15, align 4
  %.not19 = icmp eq i16 %28, 8001
  br i1 %.not19, label %32, label %29

29:                                               ; preds = %27
  %30 = call ptr @rpc_num2string(i16 noundef zeroext %28) #16
  %31 = call i32 (ptr, ...) @error(ptr noundef nonnull @.str.5, ptr noundef nonnull @__func__._parse_resp_ctld_mult, ptr noundef %30) #16
  br label %37

32:                                               ; preds = %27
  %33 = load ptr, ptr %16, align 8
  %34 = load i32, ptr %33, align 4
  %35 = icmp eq i32 %34, 0
  br i1 %35, label %36, label %37

36:                                               ; preds = %32
  call void @bit_set(ptr noundef %11, i64 noundef %indvars.iv.next) #16
  br label %37

37:                                               ; preds = %32, %36, %29
  %38 = load i16, ptr %15, align 4
  %39 = zext i16 %38 to i32
  %40 = load ptr, ptr %16, align 8
  %41 = call i32 @slurm_free_msg_data(i32 noundef %39, ptr noundef %40) #16
  br label %.backedge

.loopexit:                                        ; preds = %.backedge, %8, %6
  %.013 = phi ptr [ null, %6 ], [ %11, %8 ], [ %11, %.backedge ]
  call void @llvm.lifetime.end.p0(i64 424, ptr nonnull %2) #16
  ret ptr %.013
}